(dp0
S'secret_key'
p1
(dp2
S'q'
p3
L257631578237257161332233313130165166487L
sS'p'
p4
L272125309686749061858780291896489914883L
sS'd'
p5
L31147851777112096516688759248638979263588400149194156423927552551440542375805L
ssS'shared_key'
p6
(dp7
S'e'
p8
I65537
sS'n'
p9
L70108073012899524999630154716421773672192118414789323033128164120662154126021L
ss.