(dp0
S'secret_key'
p1
(dp2
S'q'
p3
L316250749404123553719146185934550125027L
sS'p'
p4
L333599240969672419064438245500635184539L
sS'd'
p5
L49773192652546423023616959507926537649306417110960135084276326325542553709229L
ssS'shared_key'
p6
(dp7
S'e'
p8
I65537
sS'n'
p9
L105501009957305699592444279416248310034046617615490855807131965633837667357553L
ss.