(dp0
S'secret_key'
p1
(dp2
S'q'
p3
L303508323897316611558239527662896032283L
sS'p'
p4
L300055456835422759048269476505657020087L
sS'd'
p5
L55202712286627284898754303043992431089251643142458134444776031373347463517769L
ssS'shared_key'
p6
(dp7
S'e'
p8
I65537
sS'n'
p9
L91069328780362794401894496264263503909788604726895926127573904868717531468621L
ss.